; Function Attrs: mustprogress uwtable
define hidden void @_ZN4cvc58internal6theory5arith6linear14ArithVariables14pushLowerBoundERNS4_7VarInfoE(ptr noundef nonnull align 8 dereferenceable(568) %this, ptr nocapture noundef nonnull align 8 dereferenceable(113) %vi) local_unnamed_addr #3 align 2 {
entry:
  %ref.tmp = alloca %"struct.std::pair.36", align 8
  %d_pushCount = getelementptr inbounds i8, ptr %vi, i64 96
  %0 = load i32, ptr %d_pushCount, align 8
  %inc = add i32 %0, 1
  store i32 %inc, ptr %d_pushCount, align 8
  %d_lbRevertHistory = getelementptr inbounds i8, ptr %this, i64 336
  %d_lb = getelementptr inbounds i8, ptr %vi, i64 72
  %1 = load i32, ptr %vi, align 8
  %2 = load ptr, ptr %d_lb, align 8
  store i32 %1, ptr %ref.tmp, align 8
  %3 = getelementptr inbounds i8, ptr %ref.tmp, i64 8
  store ptr %2, ptr %3, align 8
  call void @_ZN4cvc57context6CDListISt4pairIjPNS_8internal6theory5arith6linear10ConstraintEENS6_14ArithVariables17LowerBoundCleanUpESaIS9_EE9push_backERKS9_(ptr noundef nonnull align 8 dereferenceable(88) %d_lbRevertHistory, ptr noundef nonnull align 8 dereferenceable(16) %ref.tmp)
  ret void
}